; Function Attrs: mustprogress uwtable
define hidden void @_ZN3smt9theory_bv12process_argsEP3app(ptr nocapture noundef nonnull readonly align 8 dereferenceable(1048) %this, ptr noundef %n) local_unnamed_addr #3 align 2 {
entry:
  %ctx = getelementptr inbounds i8, ptr %this, i64 16
  %0 = load ptr, ptr %ctx, align 8
  %m_args.i = getelementptr inbounds i8, ptr %n, i64 32
  %m_num_args.i = getelementptr inbounds i8, ptr %n, i64 24
  %1 = load i32, ptr %m_num_args.i, align 8
  tail call void @_ZN3smt7context11internalizeEPKP4exprjb(ptr noundef nonnull align 8 dereferenceable(11616) %0, ptr noundef nonnull %m_args.i, i32 noundef %1, i1 noundef zeroext false)
  ret void
}